target datalayout = "e-m:e-p270:32:32-p271:32:32-p272:64:64-i64:64-i128:128-f80:128-n8:16:32:64-S128"
target triple = "x86_64-pc-linux-gnu"

; Function Attrs: nounwind uwtable
define internal ptr @Gia_ManTerStateNext(ptr noundef %0, i32 noundef %1) #0 {
  %3 = alloca ptr, align 8
  %4 = alloca i32, align 4
  store ptr %0, ptr %3, align 8
  store i32 %1, ptr %4, align 4
  %5 = load ptr, ptr %3, align 8
  %6 = load i32, ptr %4, align 4
  %7 = sext i32 %6 to i64
  %8 = getelementptr inbounds i32, ptr %5, i64 %7
  %9 = load ptr, ptr %8, align 8
  ret ptr %9
}

; Function Attrs: nounwind uwtable
define i32 @Gia_ManTerStateHash(ptr noundef %0, i32 noundef %1, i32 noundef %2) #0 {
  %4 = alloca ptr, align 8
  %5 = alloca i32, align 4
  %6 = alloca i32, align 4
  %7 = alloca i32, align 4
  %8 = alloca i32, align 4
  store ptr %0, ptr %4, align 8
  store i32 %1, ptr %5, align 4
  store i32 %2, ptr %6, align 4
  store i32 0, ptr %7, align 4
  store i32 0, ptr %8, align 4
  br label %9

9:                                                ; preds = %27, %3
  %10 = load i32, ptr %8, align 4
  %11 = load i32, ptr %5, align 4
  %12 = icmp slt i32 %10, %11
  br i1 %12, label %13, label %30

13:                                               ; preds = %9
  %14 = load ptr, ptr %4, align 8
  %15 = load i32, ptr %8, align 4
  %16 = sext i32 %15 to i64
  %17 = getelementptr inbounds i32, ptr %14, i64 %16
  %18 = load i32, ptr %17, align 4
  %19 = load i32, ptr %8, align 4
  %20 = and i32 %19, 127
  %21 = sext i32 %20 to i64
  %22 = getelementptr inbounds [128 x i32], ptr @Gia_ManTerStateHash.s_FPrimes, i64 0, i64 %21
  %23 = load i32, ptr %22, align 4
  %24 = mul i32 %18, %23
  %25 = load i32, ptr %7, align 4
  %26 = xor i32 %25, %24
  store i32 %26, ptr %7, align 4
  br label %27

27:                                               ; preds = %13
  %28 = load i32, ptr %8, align 4
  %29 = add nsw i32 %28, 1
  store i32 %29, ptr %8, align 4
  br label %9, !llvm.loop !8

30:                                               ; preds = %9
  %31 = load i32, ptr %7, align 4
  %32 = load i32, ptr %6, align 4
  %33 = urem i32 %31, %32
  ret i32 %33
}

; Function Attrs: nounwind uwtable
define ptr @Gia_ManTerStateLookup(ptr noundef %0, i32 noundef %1, ptr noundef %2, i32 noundef %3) #0 {
  %5 = alloca ptr, align 8
  %6 = alloca ptr, align 8
  %7 = alloca i32, align 4
  %8 = alloca ptr, align 8
  %9 = alloca i32, align 4
  %10 = alloca ptr, align 8
  %11 = alloca i32, align 4
  store ptr %0, ptr %6, align 8
  store i32 %1, ptr %7, align 4
  store ptr %2, ptr %8, align 8
  store i32 %3, ptr %9, align 4
  %12 = load ptr, ptr %6, align 8
  %13 = load i32, ptr %7, align 4
  %14 = load i32, ptr %9, align 4
  %15 = call i32 @Gia_ManTerStateHash(ptr noundef %12, i32 noundef %13, i32 noundef %14)
  store i32 %15, ptr %11, align 4
  %16 = load ptr, ptr %8, align 8
  %17 = load i32, ptr %11, align 4
  %18 = sext i32 %17 to i64
  %19 = getelementptr inbounds ptr, ptr %16, i64 %18
  %20 = load ptr, ptr %19, align 8
  store ptr %20, ptr %10, align 8
  br label %21

21:                                               ; preds = %35, %4
  %22 = load ptr, ptr %10, align 8
  %23 = icmp ne ptr %22, null
  br i1 %23, label %24, label %39

24:                                               ; preds = %21
  %25 = load ptr, ptr %10, align 8
  %26 = load ptr, ptr %6, align 8
  %27 = load i32, ptr %7, align 4
  %28 = sext i32 %27 to i64
  %29 = mul i64 4, %28
  %30 = call i32 @memcmp(ptr noundef %25, ptr noundef %26, i64 noundef %29) #12
  %31 = icmp ne i32 %30, 0
  br i1 %31, label %34, label %32

32:                                               ; preds = %24
  %33 = load ptr, ptr %10, align 8
  store ptr %33, ptr %5, align 8
  br label %40

34:                                               ; preds = %24
  br label %35

35:                                               ; preds = %34
  %36 = load ptr, ptr %10, align 8
  %37 = load i32, ptr %7, align 4
  %38 = call ptr @Gia_ManTerStateNext(ptr noundef %36, i32 noundef %37)
  store ptr %38, ptr %10, align 8
  br label %21, !llvm.loop !9

39:                                               ; preds = %21
  store ptr null, ptr %5, align 8
  br label %40

40:                                               ; preds = %39, %32
  %41 = load ptr, ptr %5, align 8
  ret ptr %41
}