; Function Attrs: nofree nounwind memory(read, inaccessiblemem: none) uwtable
define ptr @Gia_ManTerStateLookup(ptr noundef readonly captures(none) %0, i32 noundef %1, ptr noundef readonly captures(none) %2, i32 noundef %3) local_unnamed_addr #6 {
  %5 = icmp sgt i32 %1, 0
  br i1 %5, label %.lr.ph.preheader.i, label %Gia_ManTerStateHash.exit

.lr.ph.preheader.i:                               ; preds = %4
  %wide.trip.count.i = zext nneg i32 %1 to i64
  br label %.lr.ph.i

.lr.ph.i:                                         ; preds = %.lr.ph.i, %.lr.ph.preheader.i
  %indvars.iv.i = phi i64 [ 0, %.lr.ph.preheader.i ], [ %indvars.iv.next.i, %.lr.ph.i ]
  %.089.i = phi i32 [ 0, %.lr.ph.preheader.i ], [ %12, %.lr.ph.i ]
  %6 = getelementptr inbounds nuw i32, ptr %0, i64 %indvars.iv.i
  %7 = load i32, ptr %6, align 4
  %8 = and i64 %indvars.iv.i, 127
  %9 = getelementptr inbounds nuw [128 x i32], ptr @Gia_ManTerStateHash.s_FPrimes, i64 0, i64 %8
  %10 = load i32, ptr %9, align 4
  %11 = mul i32 %10, %7
  %12 = xor i32 %11, %.089.i
  %indvars.iv.next.i = add nuw nsw i64 %indvars.iv.i, 1
  %exitcond.not.i = icmp eq i64 %indvars.iv.next.i, %wide.trip.count.i
  br i1 %exitcond.not.i, label %Gia_ManTerStateHash.exit, label %.lr.ph.i, !llvm.loop !8

Gia_ManTerStateHash.exit:                         ; preds = %.lr.ph.i, %4
  %.08.lcssa.i = phi i32 [ 0, %4 ], [ %12, %.lr.ph.i ]
  %13 = urem i32 %.08.lcssa.i, %3
  %14 = sext i32 %13 to i64
  %15 = getelementptr inbounds ptr, ptr %2, i64 %14
  %16 = sext i32 %1 to i64
  %17 = shl nsw i64 %16, 2
  %.01214 = load ptr, ptr %15, align 8
  %.not15 = icmp eq ptr %.01214, null
  br i1 %.not15, label %._crit_edge, label %.lr.ph

.lr.ph:                                           ; preds = %Gia_ManTerStateHash.exit, %18
  %.01216 = phi ptr [ %.012, %18 ], [ %.01214, %Gia_ManTerStateHash.exit ]
  %bcmp = tail call i32 @bcmp(ptr nonnull %.01216, ptr %0, i64 %17)
  %.not13 = icmp eq i32 %bcmp, 0
  br i1 %.not13, label %._crit_edge, label %18

18:                                               ; preds = %.lr.ph
  %19 = getelementptr inbounds i32, ptr %.01216, i64 %16
  %.012 = load ptr, ptr %19, align 8
  %.not = icmp eq ptr %.012, null
  br i1 %.not, label %._crit_edge, label %.lr.ph, !llvm.loop !9

._crit_edge:                                      ; preds = %.lr.ph, %18, %Gia_ManTerStateHash.exit
  %.012.lcssa = phi ptr [ null, %Gia_ManTerStateHash.exit ], [ null, %18 ], [ %.01216, %.lr.ph ]
  ret ptr %.012.lcssa
}